target datalayout = "e-m:e-p270:32:32-p271:32:32-p272:64:64-i64:64-i128:128-f80:128-n8:16:32:64-S128"
target triple = "x86_64-pc-linux-gnu"

%struct.__storeu_si128 = type { <2 x i64> }
%struct.__loadu_si128 = type { <2 x i64> }

; Function Attrs: alwaysinline nounwind uwtable
define internal <2 x i64> @_mm_set_epi32(i32 noundef %0, i32 noundef %1, i32 noundef %2, i32 noundef %3) #4 {
  %5 = alloca i32, align 4
  %6 = alloca i32, align 4
  %7 = alloca i32, align 4
  %8 = alloca i32, align 4
  %9 = alloca <4 x i32>, align 16
  store i32 %0, ptr %5, align 4, !tbaa !9
  store i32 %1, ptr %6, align 4, !tbaa !9
  store i32 %2, ptr %7, align 4, !tbaa !9
  store i32 %3, ptr %8, align 4, !tbaa !9
  %10 = load i32, ptr %8, align 4, !tbaa !9
  %11 = insertelement <4 x i32> poison, i32 %10, i32 0
  %12 = load i32, ptr %7, align 4, !tbaa !9
  %13 = insertelement <4 x i32> %11, i32 %12, i32 1
  %14 = load i32, ptr %6, align 4, !tbaa !9
  %15 = insertelement <4 x i32> %13, i32 %14, i32 2
  %16 = load i32, ptr %5, align 4, !tbaa !9
  %17 = insertelement <4 x i32> %15, i32 %16, i32 3
  store <4 x i32> %17, ptr %9, align 16, !tbaa !11
  %18 = load <4 x i32>, ptr %9, align 16, !tbaa !11
  %19 = bitcast <4 x i32> %18 to <2 x i64>
  ret <2 x i64> %19
}

; Function Attrs: alwaysinline nounwind uwtable
define internal void @_mm_storeu_si128(ptr noundef %0, <2 x i64> noundef %1) #4 {
  %3 = alloca ptr, align 8
  %4 = alloca <2 x i64>, align 16
  store ptr %0, ptr %3, align 8, !tbaa !3
  store <2 x i64> %1, ptr %4, align 16, !tbaa !11
  %5 = load <2 x i64>, ptr %4, align 16, !tbaa !11
  %6 = load ptr, ptr %3, align 8, !tbaa !3
  %7 = getelementptr inbounds nuw %struct.__storeu_si128, ptr %6, i32 0, i32 0
  store <2 x i64> %5, ptr %7, align 1, !tbaa !11
  ret void
}

; Function Attrs: alwaysinline nounwind uwtable
define internal <2 x i64> @_mm_or_si128(<2 x i64> noundef %0, <2 x i64> noundef %1) #4 {
  %3 = alloca <2 x i64>, align 16
  %4 = alloca <2 x i64>, align 16
  store <2 x i64> %0, ptr %3, align 16, !tbaa !11
  store <2 x i64> %1, ptr %4, align 16, !tbaa !11
  %5 = load <2 x i64>, ptr %3, align 16, !tbaa !11
  %6 = load <2 x i64>, ptr %4, align 16, !tbaa !11
  %7 = or <2 x i64> %5, %6
  ret <2 x i64> %7
}

; Function Attrs: alwaysinline nounwind uwtable
define internal <2 x i64> @_mm_andnot_si128(<2 x i64> noundef %0, <2 x i64> noundef %1) #4 {
  %3 = alloca <2 x i64>, align 16
  %4 = alloca <2 x i64>, align 16
  store <2 x i64> %0, ptr %3, align 16, !tbaa !11
  store <2 x i64> %1, ptr %4, align 16, !tbaa !11
  %5 = load <2 x i64>, ptr %3, align 16, !tbaa !11
  %6 = xor <2 x i64> %5, splat (i64 -1)
  %7 = load <2 x i64>, ptr %4, align 16, !tbaa !11
  %8 = and <2 x i64> %6, %7
  ret <2 x i64> %8
}

; Function Attrs: alwaysinline nounwind uwtable
define internal <2 x i64> @_mm_and_si128(<2 x i64> noundef %0, <2 x i64> noundef %1) #4 {
  %3 = alloca <2 x i64>, align 16
  %4 = alloca <2 x i64>, align 16
  store <2 x i64> %0, ptr %3, align 16, !tbaa !11
  store <2 x i64> %1, ptr %4, align 16, !tbaa !11
  %5 = load <2 x i64>, ptr %3, align 16, !tbaa !11
  %6 = load <2 x i64>, ptr %4, align 16, !tbaa !11
  %7 = and <2 x i64> %5, %6
  ret <2 x i64> %7
}

; Function Attrs: alwaysinline nounwind uwtable
define internal <2 x i64> @_mm_loadu_si128(ptr noundef %0) #4 {
  %2 = alloca ptr, align 8
  store ptr %0, ptr %2, align 8, !tbaa !3
  %3 = load ptr, ptr %2, align 8, !tbaa !3
  %4 = getelementptr inbounds nuw %struct.__loadu_si128, ptr %3, i32 0, i32 0
  %5 = load <2 x i64>, ptr %4, align 1, !tbaa !11
  ret <2 x i64> %5
}

; Function Attrs: alwaysinline nounwind uwtable
define internal <2 x i64> @_mm_set1_epi32(i32 noundef %0) #4 {
  %2 = alloca i32, align 4
  store i32 %0, ptr %2, align 4, !tbaa !9
  %3 = load i32, ptr %2, align 4, !tbaa !9
  %4 = load i32, ptr %2, align 4, !tbaa !9
  %5 = load i32, ptr %2, align 4, !tbaa !9
  %6 = load i32, ptr %2, align 4, !tbaa !9
  %7 = call <2 x i64> @_mm_set_epi32(i32 noundef %3, i32 noundef %4, i32 noundef %5, i32 noundef %6)
  ret <2 x i64> %7
}

; Function Attrs: nounwind uwtable
define internal void @ConvertBGRAToRGBA_SSE2(ptr noalias noundef %0, i32 noundef %1, ptr noalias noundef %2) #1 {
  %4 = alloca ptr, align 8
  %5 = alloca i32, align 4
  %6 = alloca ptr, align 8
  %7 = alloca <2 x i64>, align 16
  %8 = alloca ptr, align 8
  %9 = alloca ptr, align 8
  %10 = alloca <2 x i64>, align 16
  %11 = alloca <2 x i64>, align 16
  %12 = alloca <2 x i64>, align 16
  %13 = alloca <2 x i64>, align 16
  %14 = alloca <2 x i64>, align 16
  %15 = alloca <2 x i64>, align 16
  %16 = alloca <2 x i64>, align 16
  %17 = alloca <2 x i64>, align 16
  %18 = alloca <2 x i64>, align 16
  %19 = alloca <2 x i64>, align 16
  %20 = alloca <2 x i64>, align 16
  %21 = alloca <2 x i64>, align 16
  store ptr %0, ptr %4, align 8, !tbaa !7
  store i32 %1, ptr %5, align 4, !tbaa !9
  store ptr %2, ptr %6, align 8, !tbaa !33
  call void @llvm.lifetime.start.p0(i64 16, ptr %7) #9
  %22 = call <2 x i64> @_mm_set1_epi32(i32 noundef 16711935)
  store <2 x i64> %22, ptr %7, align 16, !tbaa !11
  call void @llvm.lifetime.start.p0(i64 8, ptr %8) #9
  %23 = load ptr, ptr %4, align 8, !tbaa !7
  store ptr %23, ptr %8, align 8, !tbaa !3
  call void @llvm.lifetime.start.p0(i64 8, ptr %9) #9
  %24 = load ptr, ptr %6, align 8, !tbaa !33
  store ptr %24, ptr %9, align 8, !tbaa !3
  br label %25

25:                                               ; preds = %28, %3
  %26 = load i32, ptr %5, align 4, !tbaa !9
  %27 = icmp sge i32 %26, 8
  br i1 %27, label %28, label %77

28:                                               ; preds = %25
  call void @llvm.lifetime.start.p0(i64 16, ptr %10) #9
  %29 = load ptr, ptr %8, align 8, !tbaa !3
  %30 = getelementptr inbounds nuw <2 x i64>, ptr %29, i32 1
  store ptr %30, ptr %8, align 8, !tbaa !3
  %31 = call <2 x i64> @_mm_loadu_si128(ptr noundef %29)
  store <2 x i64> %31, ptr %10, align 16, !tbaa !11
  call void @llvm.lifetime.start.p0(i64 16, ptr %11) #9
  %32 = load ptr, ptr %8, align 8, !tbaa !3
  %33 = getelementptr inbounds nuw <2 x i64>, ptr %32, i32 1
  store ptr %33, ptr %8, align 8, !tbaa !3
  %34 = call <2 x i64> @_mm_loadu_si128(ptr noundef %32)
  store <2 x i64> %34, ptr %11, align 16, !tbaa !11
  call void @llvm.lifetime.start.p0(i64 16, ptr %12) #9
  %35 = load <2 x i64>, ptr %10, align 16, !tbaa !11
  %36 = load <2 x i64>, ptr %7, align 16, !tbaa !11
  %37 = call <2 x i64> @_mm_and_si128(<2 x i64> noundef %35, <2 x i64> noundef %36)
  store <2 x i64> %37, ptr %12, align 16, !tbaa !11
  call void @llvm.lifetime.start.p0(i64 16, ptr %13) #9
  %38 = load <2 x i64>, ptr %11, align 16, !tbaa !11
  %39 = load <2 x i64>, ptr %7, align 16, !tbaa !11
  %40 = call <2 x i64> @_mm_and_si128(<2 x i64> noundef %38, <2 x i64> noundef %39)
  store <2 x i64> %40, ptr %13, align 16, !tbaa !11
  call void @llvm.lifetime.start.p0(i64 16, ptr %14) #9
  %41 = load <2 x i64>, ptr %7, align 16, !tbaa !11
  %42 = load <2 x i64>, ptr %10, align 16, !tbaa !11
  %43 = call <2 x i64> @_mm_andnot_si128(<2 x i64> noundef %41, <2 x i64> noundef %42)
  store <2 x i64> %43, ptr %14, align 16, !tbaa !11
  call void @llvm.lifetime.start.p0(i64 16, ptr %15) #9
  %44 = load <2 x i64>, ptr %7, align 16, !tbaa !11
  %45 = load <2 x i64>, ptr %11, align 16, !tbaa !11
  %46 = call <2 x i64> @_mm_andnot_si128(<2 x i64> noundef %44, <2 x i64> noundef %45)
  store <2 x i64> %46, ptr %15, align 16, !tbaa !11
  call void @llvm.lifetime.start.p0(i64 16, ptr %16) #9
  %47 = load <2 x i64>, ptr %12, align 16, !tbaa !11
  %48 = bitcast <2 x i64> %47 to <8 x i16>
  %49 = shufflevector <8 x i16> %48, <8 x i16> poison, <8 x i32> <i32 1, i32 0, i32 3, i32 2, i32 4, i32 5, i32 6, i32 7>
  %50 = bitcast <8 x i16> %49 to <2 x i64>
  store <2 x i64> %50, ptr %16, align 16, !tbaa !11
  call void @llvm.lifetime.start.p0(i64 16, ptr %17) #9
  %51 = load <2 x i64>, ptr %13, align 16, !tbaa !11
  %52 = bitcast <2 x i64> %51 to <8 x i16>
  %53 = shufflevector <8 x i16> %52, <8 x i16> poison, <8 x i32> <i32 1, i32 0, i32 3, i32 2, i32 4, i32 5, i32 6, i32 7>
  %54 = bitcast <8 x i16> %53 to <2 x i64>
  store <2 x i64> %54, ptr %17, align 16, !tbaa !11
  call void @llvm.lifetime.start.p0(i64 16, ptr %18) #9
  %55 = load <2 x i64>, ptr %16, align 16, !tbaa !11
  %56 = bitcast <2 x i64> %55 to <8 x i16>
  %57 = shufflevector <8 x i16> %56, <8 x i16> poison, <8 x i32> <i32 0, i32 1, i32 2, i32 3, i32 5, i32 4, i32 7, i32 6>
  %58 = bitcast <8 x i16> %57 to <2 x i64>
  store <2 x i64> %58, ptr %18, align 16, !tbaa !11
  call void @llvm.lifetime.start.p0(i64 16, ptr %19) #9
  %59 = load <2 x i64>, ptr %17, align 16, !tbaa !11
  %60 = bitcast <2 x i64> %59 to <8 x i16>
  %61 = shufflevector <8 x i16> %60, <8 x i16> poison, <8 x i32> <i32 0, i32 1, i32 2, i32 3, i32 5, i32 4, i32 7, i32 6>
  %62 = bitcast <8 x i16> %61 to <2 x i64>
  store <2 x i64> %62, ptr %19, align 16, !tbaa !11
  call void @llvm.lifetime.start.p0(i64 16, ptr %20) #9
  %63 = load <2 x i64>, ptr %18, align 16, !tbaa !11
  %64 = load <2 x i64>, ptr %14, align 16, !tbaa !11
  %65 = call <2 x i64> @_mm_or_si128(<2 x i64> noundef %63, <2 x i64> noundef %64)
  store <2 x i64> %65, ptr %20, align 16, !tbaa !11
  call void @llvm.lifetime.start.p0(i64 16, ptr %21) #9
  %66 = load <2 x i64>, ptr %19, align 16, !tbaa !11
  %67 = load <2 x i64>, ptr %15, align 16, !tbaa !11
  %68 = call <2 x i64> @_mm_or_si128(<2 x i64> noundef %66, <2 x i64> noundef %67)
  store <2 x i64> %68, ptr %21, align 16, !tbaa !11
  %69 = load ptr, ptr %9, align 8, !tbaa !3
  %70 = getelementptr inbounds nuw <2 x i64>, ptr %69, i32 1
  store ptr %70, ptr %9, align 8, !tbaa !3
  %71 = load <2 x i64>, ptr %20, align 16, !tbaa !11
  call void @_mm_storeu_si128(ptr noundef %69, <2 x i64> noundef %71)
  %72 = load ptr, ptr %9, align 8, !tbaa !3
  %73 = getelementptr inbounds nuw <2 x i64>, ptr %72, i32 1
  store ptr %73, ptr %9, align 8, !tbaa !3
  %74 = load <2 x i64>, ptr %21, align 16, !tbaa !11
  call void @_mm_storeu_si128(ptr noundef %72, <2 x i64> noundef %74)
  %75 = load i32, ptr %5, align 4, !tbaa !9
  %76 = sub nsw i32 %75, 8
  store i32 %76, ptr %5, align 4, !tbaa !9
  call void @llvm.lifetime.end.p0(i64 16, ptr %21) #9
  call void @llvm.lifetime.end.p0(i64 16, ptr %20) #9
  call void @llvm.lifetime.end.p0(i64 16, ptr %19) #9
  call void @llvm.lifetime.end.p0(i64 16, ptr %18) #9
  call void @llvm.lifetime.end.p0(i64 16, ptr %17) #9
  call void @llvm.lifetime.end.p0(i64 16, ptr %16) #9
  call void @llvm.lifetime.end.p0(i64 16, ptr %15) #9
  call void @llvm.lifetime.end.p0(i64 16, ptr %14) #9
  call void @llvm.lifetime.end.p0(i64 16, ptr %13) #9
  call void @llvm.lifetime.end.p0(i64 16, ptr %12) #9
  call void @llvm.lifetime.end.p0(i64 16, ptr %11) #9
  call void @llvm.lifetime.end.p0(i64 16, ptr %10) #9
  br label %25, !llvm.loop !36

77:                                               ; preds = %25
  %78 = load i32, ptr %5, align 4, !tbaa !9
  %79 = icmp sgt i32 %78, 0
  br i1 %79, label %80, label %84

80:                                               ; preds = %77
  %81 = load ptr, ptr %8, align 8, !tbaa !3
  %82 = load i32, ptr %5, align 4, !tbaa !9
  %83 = load ptr, ptr %9, align 8, !tbaa !3
  call void @VP8LConvertBGRAToRGBA_C(ptr noundef %81, i32 noundef %82, ptr noundef %83)
  br label %84

84:                                               ; preds = %80, %77
  call void @llvm.lifetime.end.p0(i64 8, ptr %9) #9
  call void @llvm.lifetime.end.p0(i64 8, ptr %8) #9
  call void @llvm.lifetime.end.p0(i64 16, ptr %7) #9
  ret void
}