; Function Attrs: nounwind uwtable
define internal void @ConvertBGRAToRGBA_SSE2(ptr noalias noundef %0, i32 noundef %1, ptr noalias noundef %2) #2 {
  %4 = icmp sgt i32 %1, 7
  br i1 %4, label %.lr.ph, label %._crit_edge

.lr.ph:                                           ; preds = %3, %.lr.ph
  %.033 = phi i32 [ %23, %.lr.ph ], [ %1, %3 ]
  %.02932 = phi ptr [ %7, %.lr.ph ], [ %0, %3 ]
  %.03031 = phi ptr [ %22, %.lr.ph ], [ %2, %3 ]
  %5 = getelementptr inbounds nuw i8, ptr %.02932, i64 16
  %6 = load <2 x i64>, ptr %.02932, align 1, !tbaa !9
  %7 = getelementptr inbounds nuw i8, ptr %.02932, i64 32
  %8 = load <2 x i64>, ptr %5, align 1, !tbaa !9
  %9 = and <2 x i64> %6, splat (i64 -71777214294589696)
  %10 = and <2 x i64> %8, splat (i64 -71777214294589696)
  %11 = bitcast <2 x i64> %6 to <8 x i16>
  %12 = and <8 x i16> %11, splat (i16 255)
  %13 = bitcast <2 x i64> %8 to <8 x i16>
  %14 = and <8 x i16> %13, splat (i16 255)
  %15 = shufflevector <8 x i16> %12, <8 x i16> poison, <8 x i32> <i32 1, i32 0, i32 3, i32 2, i32 5, i32 4, i32 7, i32 6>
  %16 = bitcast <8 x i16> %15 to <2 x i64>
  %17 = shufflevector <8 x i16> %14, <8 x i16> poison, <8 x i32> <i32 1, i32 0, i32 3, i32 2, i32 5, i32 4, i32 7, i32 6>
  %18 = bitcast <8 x i16> %17 to <2 x i64>
  %19 = or disjoint <2 x i64> %9, %16
  %20 = or disjoint <2 x i64> %10, %18
  %21 = getelementptr inbounds nuw i8, ptr %.03031, i64 16
  store <2 x i64> %19, ptr %.03031, align 1, !tbaa !9
  %22 = getelementptr inbounds nuw i8, ptr %.03031, i64 32
  store <2 x i64> %20, ptr %21, align 1, !tbaa !9
  %23 = add nsw i32 %.033, -8
  %24 = icmp samesign ugt i32 %.033, 15
  br i1 %24, label %.lr.ph, label %._crit_edge, !llvm.loop !32

._crit_edge:                                      ; preds = %.lr.ph, %3
  %.030.lcssa = phi ptr [ %2, %3 ], [ %22, %.lr.ph ]
  %.029.lcssa = phi ptr [ %0, %3 ], [ %7, %.lr.ph ]
  %.0.lcssa = phi i32 [ %1, %3 ], [ %23, %.lr.ph ]
  %25 = icmp sgt i32 %.0.lcssa, 0
  br i1 %25, label %26, label %27

26:                                               ; preds = %._crit_edge
  tail call void @VP8LConvertBGRAToRGBA_C(ptr noundef %.029.lcssa, i32 noundef %.0.lcssa, ptr noundef %.030.lcssa) #7
  br label %27

27:                                               ; preds = %26, %._crit_edge
  ret void
}